=============================================================================
4J Studios Library Symbol Reference
Extracted from debug .lib files (MSVC mangled + demangled)
Original source: C:\Users\Paddy\Work\DrylawHill\Xbox_Libs\Dev\
=============================================================================

=== 4J_Input Library ===
Source files: INP_Input.cpp, INP_Main.cpp, INP_ForceFeedback.cpp, stdafx.cpp
Classes: C_4JInput (public API), CInput (impl), CForceFeedback, LinkedList

--- CInput / C_4JInput Methods ---
??0CForceFeedback@@QEAA@XZ
??0CInput@@QEAA@XZ
??0LinkedList@@QEAA@XZ
??1CInput@@QEAA@XZ
?AddEffectInstance@CForceFeedback@@QEAAII@Z
?AddRumble@CForceFeedback@@QEAAXIGGM@Z
?AddToHead@LinkedList@@QEAAXPEAX@Z
?AddToTail@LinkedList@@QEAAXPEAX@Z
?ButtonDown@C_4JInput@@QEAA_NHE@Z
?ButtonDown@CInput@@QEAA_NHE@Z
?ButtonPressed@C_4JInput@@QEAA_NHE@Z
?ButtonPressed@CInput@@QEAA_NHE@Z
?ButtonReleased@C_4JInput@@QEAA_NHE@Z
?ButtonReleased@CInput@@QEAA_NHE@Z
?CancelAllVerifyInProgress@C_4JInput@@QEAAXXZ
?CancelQueuedVerifyStrings@C_4JInput@@QEAAXP6AHPEAXPEAU_STRING_VERIFY_RESPONSE@@@Z0@Z
?ClearJoypadValues@CInput@@AEAAXPEAUJOYPAD@1@@Z
?ClearList@LinkedList@@QEAAXXZ
?CreateEffect@CForceFeedback@@QEAAHXZ
?GetGameJoypadMaps@C_4JInput@@QEAAIEE@Z
?GetGameJoypadMaps@CInput@@QEAAIEE@Z
?GetIdleSeconds@C_4JInput@@QEAAMH@Z
?GetIdleSeconds@CInput@@QEAAMH@Z
?GetJoypadLTrigger_Menu@CInput@@QEAAEE@Z
?GetJoypadLTrigger@C_4JInput@@QEAAEH_N@Z
?GetJoypadLTrigger@CInput@@QEAAEH_N@Z
?GetJoypadMapVal@C_4JInput@@QEAAEH@Z
?GetJoypadMapVal@CInput@@QEAAEH@Z
?GetJoypadRTrigger_Menu@CInput@@QEAAEE@Z
?GetJoypadRTrigger@C_4JInput@@QEAAEH_N@Z
?GetJoypadRTrigger@CInput@@QEAAEH_N@Z
?GetJoypadStick_LX@C_4JInput@@QEAAMH_N@Z
?GetJoypadStick_LX@CInput@@QEAAMH_N@Z
?GetJoypadStick_LY@C_4JInput@@QEAAMH_N@Z
?GetJoypadStick_LY@CInput@@QEAAMH_N@Z
?GetJoypadStick_Menu_LX@CInput@@QEAAHE@Z
?GetJoypadStick_Menu_LY@CInput@@QEAAHE@Z
?GetJoypadStick_Menu_RX@CInput@@QEAAHE@Z
?GetJoypadStick_Menu_RY@CInput@@QEAAHE@Z
?GetJoypadStick_RX@C_4JInput@@QEAAMH_N@Z
?GetJoypadStick_RX@CInput@@QEAAMH_N@Z
?GetJoypadStick_RY@C_4JInput@@QEAAMH_N@Z
?GetJoypadStick_RY@CInput@@QEAAMH_N@Z
?GetStartTime@CInput@@AEAAXHH@Z
?GetText@C_4JInput@@QEAAXPEAG@Z
?GetValue@C_4JInput@@QEAAIHE_N@Z
?GetValue@CInput@@QEAAIHE_N@Z
?Initialise@C_4JInput@@QEAAXHEEE@Z
?Initialise@CForceFeedback@@QEAAXXZ
?Initialise@CInput@@QEAAXHEEE@Z
?InitTime@CInput@@AEAAXXZ
?IsPadConnected@C_4JInput@@QEAA_NH@Z
?IsPadConnected@CInput@@QEAA_NH@Z
?IsSet@CInput@@QEAA_NHE@Z
?PauseEventInstance@CForceFeedback@@QEAAXPEAUFF_EFFECT_INSTANCE@1@@Z
?ProcessEventInstance@CForceFeedback@@QEAAXPEAUFF_EFFECT_INSTANCE@1@@Z
?RemoveHeadNode@LinkedList@@QEAAPEAU_LL_NODE@1@XZ
?RemoveNode@LinkedList@@QEAAXPEAU_LL_NODE@1@@Z
?RequestKeyboard@C_4JInput@@QEAA?AW4EKeyboardResult@@PEB_W0KIP6AHPEAX_N@Z1W4EKeyboardMode@1@@Z
?RumbleEnable@CForceFeedback@@QEAAXH_N@Z
?SetDeadzoneAndMovementRange@C_4JInput@@QEAAXII@Z
?SetDeadzoneAndMovementRange@CInput@@QEAAXII@Z
?SetDebugSequence@C_4JInput@@QEAAXPEBDP6AHPEAX@Z1@Z
?SetDebugSequence@CInput@@QEAAXPEBDP6AHPEAX@Z1@Z
?SetEffectInstanceState@CForceFeedback@@QEAAXII@Z
?SetGameJoypadMaps@C_4JInput@@QEAAXEEI@Z
?SetGameJoypadMaps@CInput@@QEAAXEEI@Z
?SetJoypadMapVal@C_4JInput@@QEAAXHE@Z
?SetJoypadMapVal@CInput@@QEAAXHE@Z
?SetJoypadSensitivity@C_4JInput@@QEAAXHM@Z
?SetJoypadSensitivity@CInput@@QEAAXHM@Z
?SetJoypadStickAxisMap@C_4JInput@@QEAAXHII@Z
?SetJoypadStickAxisMap@CInput@@QEAAXHII@Z
?SetJoypadStickTriggerMap@C_4JInput@@QEAAXHII@Z
?SetJoypadStickTriggerMap@CInput@@QEAAXHII@Z
?SetJoypadValues@CInput@@QEAAXPEAUJOYPAD@1@@Z
?SetKeyRepeatRate@C_4JInput@@QEAAXMM@Z
?SetKeyRepeatRate@CInput@@QEAAXMM@Z
?SetMenuDisplayed@C_4JInput@@QEAAXH_N@Z
?SetMenuDisplayed@CInput@@QEAAXH_N@Z
?SetSigninJoypadMask@CInput@@QEAAXI@Z
?Tick@C_4JInput@@QEAAXXZ
?Tick@CForceFeedback@@QEAAXXZ
?Tick@CInput@@QEAAXXZ
?UpdateJoypads@CInput@@AEAA_NXZ
?UpdateTime@CInput@@AEAAXHH@Z
?VerifyStrings@C_4JInput@@QEAA_NPEAPEA_WHP6AHPEAXPEAU_STRING_VERIFY_RESPONSE@@@Z1@Z

=== 4J_Storage Library ===
Source files: STO_SaveGame.cpp, STO_DLC.cpp, STO_Storage.cpp, STO_Main.cpp, stdafx.cpp
Classes: C4JStorage (public API), CSaveGame (save/load), CStorage (base), CDLC (downloadable content)

--- C4JStorage / CSaveGame / CStorage / CDLC Methods ---
??0C4JStorage@@QEAA@XZ
??0CDLC@@QEAA@XZ
??0CSaveGame@@QEAA@XZ
??0CStorage@@QEAA@XZ
??1CDLC@@QEAA@XZ
??1CStorage@@QEAA@XZ
?AddInstalled@CDLC@@AEAAXAEAU_XCONTENT_DATA@@@Z
?AllocateSaveData@C4JStorage@@QEAAPEAXI@Z
?AllocateSaveData@CSaveGame@@QEAAPEAXI@Z
?CancelGetDLCOffers@C4JStorage@@QEAAKXZ
?CancelGetOffers@CDLC@@AEAAKXZ
?ClearDLCOffers@C4JStorage@@QEAAXXZ
?ClearOffers@CDLC@@QEAAXXZ
?ClearSavesInfo@C4JStorage@@QEAAXXZ
?ClearSavesInfo@CSaveGame@@QEAAXXZ
?CopySaveDataToNewSave@C4JStorage@@QEAAXPEAEKPEA_WP6AHPEAX_N@Z2@Z
?CRC@C4JStorage@@QEAAIPEAEH@Z
?CRC@CStorage@@QEAAIPEAEH@Z
?CreateSaveUniqueName@CSaveGame@@AEAAXXZ
?DebugPrintf@CStorage@@QEAAXPEBDZZ
?DeleteSaveData@C4JStorage@@QEAA?AW4ESaveGameState@1@PEAUSAVE_INFO@@P6AHPEAX_N@Z1@Z
?DeleteSaveData@CSaveGame@@QEAA?AW4ESaveGameState@C4JStorage@@PEAUSAVE_INFO@@P6AHPEAX_N@Z1@Z
?DeleteTMSFile@C4JStorage@@QEAA_NHW4eGlobalStorage@1@PEA_W@Z
?DoesSaveExist@C4JStorage@@QEAA?AW4ESaveGameState@1@PEA_N@Z
?EnoughSpaceForAMinSaveGame@C4JStorage@@QEAA_NXZ
?GetAvailableDLCCount@C4JStorage@@QEAAKH@Z
?GetAvailableDLCCount@CDLC@@QEAAKH@Z
?GetDLC@C4JStorage@@QEAAAEAU_XCONTENT_DATA@@K@Z
?GetDLC@CDLC@@QEAAAEAU_XCONTENT_DATA@@K@Z
?GetDLCOffers@C4JStorage@@QEAA?AW4EDLCStatus@1@HP6AHPEAXHKH@Z0K@Z
?GetInstalledDLC@C4JStorage@@QEAA?AW4EDLCStatus@1@HP6AHPEAXHH@Z0@Z
?GetInstalledDLC@CDLC@@QEAA?AW4EDLCStatus@C4JStorage@@HP6AHPEAXHH@Z0@Z
?GetMessageBoxResult@C4JStorage@@QEAA?AW4EMessageResult@1@XZ
?GetMountedDLCFileList@C4JStorage@@QEAAXPEBDAEAV?$vector@V?$basic_string@DU?$char_traits@D@std@@V?$allocator@D@2@@std@@V?$allocator@V?$basic_string@DU?$char_traits@D@std@@V?$allocator@D@2@@std@@@2@@std@@@Z
?GetMountedDLCFileList@CDLC@@QEAAXPEBDAEAV?$vector@V?$basic_string@DU?$char_traits@D@std@@V?$allocator@D@2@@std@@V?$allocator@V?$basic_string@DU?$char_traits@D@std@@V?$allocator@D@2@@std@@@2@@std@@@Z
?GetMountedPath@C4JStorage@@QEAA?AV?$basic_string@DU?$char_traits@D@std@@V?$allocator@D@2@@std@@V23@@Z
?GetMountedPath@CDLC@@QEAA?AV?$basic_string@DU?$char_traits@D@std@@V?$allocator@D@2@@std@@V23@@Z
?GetOffer@C4JStorage@@QEAAAEAU_XMARKETPLACE_CONTENTOFFER_INFO@@K@Z
?GetOfferCount@C4JStorage@@QEAAHXZ
?GetOffers@CDLC@@QEAA?AW4EDLCStatus@C4JStorage@@HP6AHPEAXHKH@Z0K@Z
?GetSaveCacheFileInfo@C4JStorage@@QEAAXKAEAU_XCONTENT_DATA@@@Z
?GetSaveCacheFileInfo@C4JStorage@@QEAAXKPEAPEAEPEAK@Z
?GetSaveData@C4JStorage@@QEAAXPEAXPEAI@Z
?GetSaveData@CSaveGame@@QEAAXPEAXPEAI@Z
?GetSaveDeviceSelected@C4JStorage@@QEAA_NI@Z
?GetSaveDisabled@C4JStorage@@QEAA_NXZ
?GetSaveDisabled@CSaveGame@@QEAA_NXZ
?GetSavesInfo@C4JStorage@@QEAA?AW4ESaveGameState@1@HP6AHPEAXPEAUSAVE_DETAILS@@_N@Z0PEAD@Z
?GetSavesInfo@CSaveGame@@QEAA?AW4ESaveGameState@C4JStorage@@HP6AHPEAXPEAUSAVE_DETAILS@@_N@Z0PEAD@Z
?GetSaveSize@C4JStorage@@QEAAIXZ
?GetSaveSize@CSaveGame@@QEAAIXZ
?GetSaveUniqueFilename@C4JStorage@@QEAA_NPEAD@Z
?GetSaveUniqueFilename@CSaveGame@@QEAA_NPEAD@Z
?GetSaveUniqueNumber@C4JStorage@@QEAA_NPEAH@Z
?GetSaveUniqueNumber@CSaveGame@@QEAA_NPEAH@Z
?Init@C4JStorage@@QEAAXIPEB_WPEADHP6AHPEAXW4ESavingMessage@1@H@Z2PEBD@Z
?Init@CStorage@@QEAAXP6AHPEAXW4ESavingMessage@C4JStorage@@H@Z0PEBD@Z
?InstallOffer@C4JStorage@@QEAAKHPEA_KP6AHPEAXHH@Z1_N@Z
?LoadSaveData@C4JStorage@@QEAA?AW4ESaveGameState@1@PEAUSAVE_INFO@@P6AHPEAX_N2@Z1@Z
?LoadSaveData@CSaveGame@@QEAA?AW4ESaveGameState@C4JStorage@@PEAUSAVE_INFO@@P6AHPEAX_N2@Z1@Z
?LoadSaveDataThumbnail@C4JStorage@@QEAA?AW4ESaveGameState@1@PEAUSAVE_INFO@@P6AHPEAXPEAEK@Z1@Z
?LoadSaveDataThumbnail@CSaveGame@@QEAA?AW4ESaveGameState@C4JStorage@@PEAUSAVE_INFO@@P6AHPEAXPEAEK@Z1@Z
?MakeCRCTable@CStorage@@QEAAXXZ
?MountInstalledDLC@C4JStorage@@QEAAKHKP6AHPEAXHKK@Z0PEBD@Z
?MountInstalledDLC@CDLC@@QEAAKHKP6AHPEAXHKK@Z0PEBD@Z
?ReadTMSFile@C4JStorage@@QEAA?AW4ETMSStatus@1@HW4eGlobalStorage@1@W4eTMS_FileType@1@PEA_WPEAPEAEPEAKP6AHPEAX2H_NH@Z5H@Z
?RegisterMarketplaceCountsCallback@C4JStorage@@QEAAXP6AHPEAXPEAUDLC_TMS_DETAILS@1@H@Z0@Z
?RequestMessageBox@C4JStorage@@QEAA?AW4EMessageResult@1@IIPEAIIKP6AHPEAXHW421@@Z1PEAVC4JStringTable@@PEA_WK@Z
?ResetSaveData@C4JStorage@@QEAAXXZ
?ResetSaveData@CSaveGame@@QEAAXXZ
?ReturnSavesInfo@C4JStorage@@QEAAPEAUSAVE_DETAILS@@XZ
?ReturnSavesInfo@CSaveGame@@QEAAPEAUSAVE_DETAILS@@XZ
?SaveSaveData@C4JStorage@@QEAA?AW4ESaveGameState@1@P6AHPEAX_N@Z0@Z
?SaveSaveData@CSaveGame@@QEAA?AW4ESaveGameState@C4JStorage@@P6AHPEAX_N@Z0@Z
?SetDefaultSaveNameForKeyboardDisplay@C4JStorage@@QEAAXPEB_W@Z
?SetDLCPackageRoot@C4JStorage@@QEAAXPEAD@Z
?SetDLCProductCode@CDLC@@QEAAXPEBD@Z
?SetPackageRoot@CDLC@@QEAAXPEAD@Z
?SetProductUpgradeKey@CDLC@@QEAAXPEBD@Z
?SetSaveDevice@C4JStorage@@QEAA_NP6AHPEAX_N@Z0_N@Z
?SetSaveDeviceSelected@C4JStorage@@QEAAXI_N@Z
?SetSaveDisabled@C4JStorage@@QEAAX_N@Z
?SetSaveDisabled@CSaveGame@@QEAAX_N@Z
?SetSaveImages@C4JStorage@@QEAAXPEAEK0K0K@Z
?SetSaveImages@CSaveGame@@QEAAXPEAEK0K0K@Z
?SetSaveMessageVPosition@C4JStorage@@QEAAXM@Z
?SetSaveTitle@C4JStorage@@QEAAXPEB_W@Z
?SetSaveTitle@CSaveGame@@QEAAXPEAG@Z
?SetSaveUniqueFilename@C4JStorage@@QEAAXPEAD@Z
?SetSaveUniqueFilename@CSaveGame@@AEAAXPEAD@Z
?SetState@C4JStorage@@QEAAXW4ESaveGameControlState@1@P6AHPEAX_N@Z1@Z
?StoreTMSPathName@C4JStorage@@QEAAXPEA_W@Z
?Tick@C4JStorage@@QEAAXXZ
?Tick@CDLC@@QEAAXXZ
?Tick@CStorage@@QEAAXXZ
?TMSPP_ReadFile@C4JStorage@@QEAA?AW4ETMSStatus@1@HW4eGlobalStorage@1@W4eTMS_FILETYPEVAL@1@PEBDP6AHPEAXHHPEAUTMSPP_FILEDATA@1@2@Z3H@Z
?UnmountInstalledDLC@C4JStorage@@QEAAKPEBD@Z
?UnmountInstalledDLC@CDLC@@QEAAKPEBD@Z
?UpdateCRC@CStorage@@QEAAIIPEAEH@Z
?WriteTMSFile@C4JStorage@@QEAA_NHW4eGlobalStorage@1@PEA_WPEAEK@Z

=== 4J_Profile Library ===
Source files: 4J_Profile.cpp, PRO_AwardManager.cpp, PRO_Data.cpp, PRO_Main.cpp, PRO_RichPresence.cpp, PRO_Sys.cpp, stdafx.cpp
Classes: C_4JProfile (public API), CProfile, CAwardManager, CRichPresence, CSys, CProfileData, CTitleManagedStorage

--- C_4JProfile / CProfile / CAwardManager / CRichPresence / CSys / CProfileData Methods ---
??0CAwardManager@@QAA@XZ
??0CProfile@@QAA@XZ
??0CProfileData@@QAA@XZ
??0CRichPresence@@QAA@XZ
??0CSys@@QAA@XZ
??1CAwardManager@@QAA@XZ
??1CProfile@@QAA@XZ
??1CProfileData@@QAA@XZ
??1CRichPresence@@QAA@XZ
??1CSys@@QAA@XZ
?Achievement_Setup@CAwardManager@@QAAXH@Z
?Achievement_Synchronise@CAwardManager@@QAAXHI@Z
?Achievements_Do_Read@CAwardManager@@QAAXH@Z
?Achievements_Do_Write@CAwardManager@@QAAXHI@Z
?Achievements_Request_Read@CAwardManager@@QAAXH@Z
?Achievements_Request_Write@CAwardManager@@QAAXHH@Z
?AllowedPlayerCreatedContent@C_4JProfile@@QAAXH_NPAH1@Z
?AllowedPlayerCreatedContent@CProfile@@QAAXH_NPAH1@Z
?AllowedToPlayMultiplayer@C_4JProfile@@QAA_NH@Z
?AllowedToPlayMultiplayer@CProfile@@QAA_NH@Z
?AllowSignIns@CProfile@@QAA_NXZ
?AreXUIDSEqual@C_4JProfile@@QAAH_K0@Z
?AreXUIDSEqual@CProfile@@QAAH_K0@Z
?Award@C_4JProfile@@QAAXHH_N@Z
?Award@CAwardManager@@QAAXHH_N@Z
?AwardAchievement@CAwardManager@@QAAXHK@Z
?AwardAvatarAsset@CAwardManager@@QAAKHH@Z
?AwardGamerPic@CAwardManager@@QAAXHH_N@Z
?AwardNumberToGamerConfigID@CAwardManager@@QAAHH@Z
?AwardTheme@CAwardManager@@QAAXHH@Z
?BuildStoragePath@CTitleManagedStorage@@QAA_NHW4eGlobalStorage@C4JStorage@@@Z
?CallProfileReadErrorCallback@CSys@@QAAXXZ
?CallSignInChangeCallback@CSys@@QAAX_N@Z
?CallUpsellCallback@CSys@@QAAXW4eUpsellResponse@@@Z
?CanBeAwarded@C_4JProfile@@QAA_NHH@Z
?CanBeAwarded@CAwardManager@@QAA_NHH@Z
?CanViewPlayerCreatedContent@C_4JProfile@@QAAHH_NPA_KK@Z
?CanViewPlayerCreatedContent@CProfile@@QAAHH_NPA_KK@Z
?CheckForAchievementUpdatesRequired@CAwardManager@@QAAXXZ
?CheckForProfileUpdatesRequired@CProfileData@@QAAXXZ
?CheckForSignInChange@CProfile@@QAAXXZ
?CheckForSystemNotifications@CSys@@QAAXXZ
?ClearAchievements@CAwardManager@@QAAXH@Z
?ClearProfileWriteTimer@CProfileData@@AAAXH@Z
?ClearQueuedProfileWrite@CProfileData@@QAAXH@Z
?ClearToBeAwardedBitmaskFlag@CAwardManager@@QAAXHH@Z
?ClearTrialAwardsFlag@CProfileData@@QAAXHH@Z
?ContentLicenseChanged@CSys@@QAAXXZ
?DebugPrintf@CSys@@QAAXPBDZZ
?DisplayFullVersionPurchase@C_4JProfile@@QAAX_NHH@Z
?DisplayFullVersionPurchase@CSys@@QAAX_NH@Z
?DisplayOfflineProfile@C_4JProfile@@QAAIP6AHPAX_NH@Z0H@Z
?DisplayOfflineProfile@CProfile@@QAAIP6AHPAX_NH@Z0H@Z
?FindContext@CRichPresence@@AAAHHH@Z
?ForceQueuedProfileWrites@C_4JProfile@@QAAXH@Z
?ForceQueuedProfileWrites@CProfileData@@QAAXH@Z
?GamerConfigIDToAwardNumber@CAwardManager@@QAAHH@Z
?GetAwardId@C_4JProfile@@QAAHH@Z
?GetAwardId@CAwardManager@@QAAHH@Z
?GetAwardType@C_4JProfile@@QAA?AW4eAwardType@@H@Z
?GetAwardType@CAwardManager@@QAA?AW4eAwardType@@H@Z
?GetCurrentAwardsData@CProfileData@@QAAPAUAWARD_BITMASKS@1@H@Z
?GetDashboardProfileSettings@C_4JProfile@@QAAPAUPROFILESETTINGS@1@H@Z
?GetDashboardProfileSettings@CProfileData@@QAAPAUPROFILESETTINGS@C_4JProfile@@H@Z
?GetGameDefinedProfileData@C_4JProfile@@QAAPAXH@Z
?GetGameDefinedProfileData@CProfileData@@QAAPAXH@Z
?GetGamertag@C_4JProfile@@QAAPADH@Z
?GetGamertag@CProfile@@QAAPADH@Z
?GetLicenseChange@CSys@@QAA_NXZ
?GetLiveConnectionStatus@C_4JProfile@@QAAJXZ
?GetLiveConnectionStatus@CSys@@QAAJXZ
?GetLockedProfile@C_4JProfile@@QAAHXZ
?GetLockedProfile@CProfile@@QAAHXZ
?GetNumSignedInUsers@CProfile@@QAAKXZ
?GetPrimaryPad@C_4JProfile@@QAAHXZ
?GetPrimaryPad@CSys@@QAAHXZ
?GetSignedInUsersMask@CProfile@@QAAKXZ
?GetSignInChange@CProfile@@QAA_NXZ
?GetSignInCountdown@CProfile@@QAAMXZ
?GetTitleAndOfferID@CProfileData@@QAAXPAK0@Z
?GetXUID@C_4JProfile@@QAAXHPA_K_N@Z
?GetXUID@CProfile@@QAAXHPA_K_N@Z
?Initialise@C_4JProfile@@QAAXKKGIIPAKHPAI@Z
?Initialise@CProfile@@QAAXKKGIIPAKHPAI@Z
?Initialise@CProfileData@@QAAXKKGIIPAKHPAI@Z
?Initialise@CRichPresence@@QAAXHH@Z
?InitialiseProfile@CProfileData@@QAAXH@Z
?IsAwardsFlagSet@C_4JProfile@@QAA_NHH@Z
?IsAwardsFlagSet@CProfileData@@QAA_NHH@Z
?IsFullVersion@C_4JProfile@@QAA_NXZ
?IsFullVersion@CSys@@QAA_NXZ
?IsGuest@C_4JProfile@@QAA_NH@Z
?IsGuestPlayer@CProfile@@QAA_NH@Z
?IsSignedIn@C_4JProfile@@QAA_NH@Z
?IsSignedIn@CProfile@@QAA_NH@Z
?IsSignedInLive@C_4JProfile@@QAA_NH@Z
?IsSignedInLive@CProfile@@QAA_NH@Z
?IsSystemUIDisplayed@C_4JProfile@@QAA_NXZ
?IsSystemUIDisplayed@CSys@@QAA_NXZ
?IsTrialAwardsFlagSet@CProfileData@@QAA_NHH@Z
?IsValidPlayer@CProfile@@QAA_NH@Z
?LocaleIsUSorCanada@C_4JProfile@@QAA_NXZ
?LocaleIsUSorCanada@CSys@@QAA_NXZ
?NotificationsCallback@CSys@@QAAXKI@Z
?OfflinePlayersSignedIn@CProfile@@QAA_NXZ
?OverlapUpdate@CProfileData@@AAAXXZ
?PlayerAcceptsOfflineLeaderboard@CSys@@QAAXXZ
?PrimaryPlayerChanged@CProfile@@QAA_NXZ
?PrimaryPlayerHasSignedOutDialogBox@CProfile@@QAA_N_N@Z
?PrimaryPlayerIsSignedInOffline@CProfile@@QAA_NXZ
?ProcessSignIn@CProfile@@QAA_NXZ
?ProfileDataAvailable@CProfileData@@QAA_NH@Z
?QuadrantOfflineXUID@CProfile@@QAA_KH@Z
?QuadrantOnlineXUID@CProfile@@QAA_KH@Z
?QuerySigninStatus@C_4JProfile@@QAA_NXZ
?QuerySigninStatus@CProfile@@QAA_NXZ
?ReadFromProfile@CProfileData@@QAAXHH@Z
?RegionIsNorthAmerica@C_4JProfile@@QAA_NXZ
?RegionIsNorthAmerica@CSys@@QAA_NXZ
?RegisterAward@C_4JProfile@@QAAXHHW4eAwardType@@_NPAVCXuiStringTable@@HHHPADI@Z
?RegisterAward@CAwardManager@@QAAXHHW4eAwardType@@_NPAVCXuiStringTable@@HHHPADI@Z
?RegisterRichPresenceContext@C_4JProfile@@QAAXH@Z
?RegisterRichPresenceContext@CRichPresence@@QAAXH@Z
?RequestConvertOfflineToGuestUI@C_4JProfile@@QAAIP6AHPAX_NH@Z0H@Z
?RequestSignInUI@C_4JProfile@@QAAI_N0000P6AHPAX_NH@Z1H@Z
?RequestSignInUI@CProfile@@QAAI_N00000P6AHPAX_NH@Z1H@Z
?Reset@CAwardManager@@QAAXXZ
?Reset@CTitleManagedStorage@@QAAXH@Z
?ResetProfileProcessState@C_4JProfile@@QAAXXZ
?ResetProfileProcessState@CProfile@@QAAXXZ
?RichPresenceInit@C_4JProfile@@QAAXHH@Z
?Save_AchievementsNeedUpdated@CAwardManager@@QAAXXZ
?SecondaryPlayerHasSignedOut@CProfile@@QAAX_N@Z
?SetAwardsFlag@CProfileData@@QAAXHH@Z
?SetCurrentGameActivity@C_4JProfile@@QAAXHH_N@Z
?SetCurrentGameActivity@CRichPresence@@QAAXHH_N@Z
?SetDebugFullOverride@C_4JProfile@@QAAX_N@Z
?SetDebugFullOverride@CSys@@QAAX_N@Z
?SetDefaultOptionsCallback@C_4JProfile@@QAAHP6AHPAXPAUPROFILESETTINGS@1@H@Z0@Z
?SetDefaultOptionsCallback@CProfileData@@QAAHP6AHPAXPAUPROFILESETTINGS@C_4JProfile@@H@Z0@Z
?SetDefaults@CProfileData@@AAAHH@Z
?SetLeaderboardDisable@CSys@@QAAX_N@Z
?SetLicenseChange@CSys@@QAAX_N@Z
?SetLicenseRequired@CSys@@QAAX_N@Z
?SetLiveConnectionStatus@CSys@@QAAXJ@Z
?SetLockedProfile@C_4JProfile@@QAAXH@Z
?SetLockedProfile@CProfile@@QAAXH@Z
?SetNotificationsCallback@C_4JProfile@@QAAXP6AXPAXKI@Z0@Z
?SetNotificationsCallback@CSys@@QAAXP6AXPAXKI@Z0@Z
?SetOldProfileVersionCallback@C_4JProfile@@QAAHP6AHPAXPAEGH@Z0@Z
?SetOldProfileVersionCallback@CProfileData@@QAAHP6AHPAXPAEGH@Z0@Z
?SetPrimaryPad@C_4JProfile@@QAAXH@Z
?SetPrimaryPad@CSys@@QAAXH@Z
?SetPrimaryPlayerChanged@C_4JProfile@@QAAX_N@Z
?SetPrimaryPlayerChanged@CProfile@@QAAX_N@Z
?SetProfileControlState@CProfile@@QAAXW4EProfileControlState@1@@Z
?SetProfileDataAvailable@CProfileData@@QAAXH_N@Z
?SetProfileProcessState@CProfile@@QAAXW4EProfileProcessState@1@@Z
?SetProfileReadErrorCallback@C_4JProfile@@QAAXP6AXPAX@Z0@Z
?SetProfileReadErrorCallback@CSys@@QAAXP6AXPAX@Z0@Z
?SetReadErrorFlag@CProfile@@QAAXH_N@Z
?SetRichPresenceContextValue@C_4JProfile@@QAAXHHH@Z
?SetRichPresenceContextValue@CRichPresence@@QAAXHHH@Z
?SetSignInChange@CProfile@@QAAX_N@Z
?SetSignInChangeCallback@C_4JProfile@@QAAXP6AXPAX_NI@Z0@Z
?SetSignInChangeCallback@CSys@@QAAXP6AXPAX_NI@Z0@Z
?SetSignInCountdown@CProfile@@QAAXM@Z
?SetSysUIShowing@CSys@@QAAX_N@Z
?SetToBeAwardedBitmaskFlag@CAwardManager@@QAAXHH@Z
?SetTrialAwardsFlag@CProfileData@@QAAXHH@Z
?SetTrialAwardText@C_4JProfile@@QAAXW4eAwardType@@HH@Z
?SetTrialAwardText@CAwardManager@@QAAXW4eAwardType@@HH@Z
?SetTrialTextStringTable@C_4JProfile@@QAAXPAVCXuiStringTable@@HH@Z
?SetTrialTextStringTable@CAwardManager@@QAAXPAVCXuiStringTable@@HH@Z
?SetUpsellCallback@C_4JProfile@@QAAXP6AXPAXW4eUpsellType@@W4eUpsellResponse@@H@Z0@Z
?SetUpsellCallback@CSys@@QAAXP6AXPAXW4eUpsellType@@W4eUpsellResponse@@H@Z0@Z
?SetUpsellType@CSys@@QAAXW4eUpsellType@@H@Z
?ShowSigninUI@CProfile@@QAAXXZ
?StartTrialGame@C_4JProfile@@QAAXXZ
?StartTrialGame@CProfile@@QAAXXZ
?Tick@C_4JProfile@@QAAXXZ
?Tick@CAwardManager@@QAAXXZ
?Tick@CProfile@@QAAXXZ
?Tick@CProfileData@@QAAXXZ
?Tick@CSys@@QAAXXZ
?UnlockFullGameReturned@CAwardManager@@CAHPAXHW4EMessageResult@C4JStorage@@@Z
?Update@CAwardManager@@QAAXXZ
?WriteToProfile@C_4JProfile@@QAAXH_N0@Z
?WriteToProfile@CProfileData@@QAAXH_N0@Z
